; ModuleID = 'source-C-CXX/12/1409.c'
source_filename = "source-C-CXX/12/1409.c"
target datalayout = "e-m:e-p270:32:32-p271:32:32-p272:64:64-i64:64-f80:128-n8:16:32:64-S128"
target triple = "x86_64-pc-linux-gnu"

@.str = private unnamed_addr constant [3 x i8] c"%d\00", align 1
@.str.1 = private unnamed_addr constant [4 x i8] c" %d\00", align 1

; Function Attrs: nofree nounwind sspstrong uwtable
define dso_local i32 @main() local_unnamed_addr #0 {
  %1 = alloca i32, align 4
  %2 = alloca [20000 x i32], align 16
  %3 = bitcast i32* %1 to i8*
  call void @llvm.lifetime.start.p0i8(i64 4, i8* nonnull %3) #3
  %4 = bitcast [20000 x i32]* %2 to i8*
  call void @llvm.lifetime.start.p0i8(i64 80000, i8* nonnull %4) #3
  %5 = call i32 (i8*, ...) @__isoc99_scanf(i8* getelementptr inbounds ([3 x i8], [3 x i8]* @.str, i64 0, i64 0), i32* nonnull %1)
  %6 = load i32, i32* %1, align 4, !tbaa !5
  %7 = icmp sgt i32 %6, 0
  br i1 %7, label %11, label %91

8:                                                ; preds = %11
  %9 = getelementptr inbounds [20000 x i32], [20000 x i32]* %2, i64 0, i64 0
  %10 = icmp sgt i32 %16, 0
  br i1 %10, label %19, label %91

11:                                               ; preds = %0, %11
  %12 = phi i64 [ %15, %11 ], [ 0, %0 ]
  %13 = getelementptr inbounds [20000 x i32], [20000 x i32]* %2, i64 0, i64 %12
  %14 = call i32 (i8*, ...) @__isoc99_scanf(i8* getelementptr inbounds ([3 x i8], [3 x i8]* @.str, i64 0, i64 0), i32* nonnull %13)
  %15 = add nuw nsw i64 %12, 1
  %16 = load i32, i32* %1, align 4, !tbaa !5
  %17 = sext i32 %16 to i64
  %18 = icmp slt i64 %15, %17
  br i1 %18, label %11, label %8, !llvm.loop !9

19:                                               ; preds = %8, %86
  %20 = phi i64 [ %87, %86 ], [ 0, %8 ]
  %21 = icmp eq i64 %20, 0
  br i1 %21, label %72, label %22

22:                                               ; preds = %19
  %23 = add nsw i64 %20, -1
  %24 = getelementptr inbounds [20000 x i32], [20000 x i32]* %2, i64 0, i64 %20
  %25 = load i32, i32* %24, align 4, !tbaa !5
  %26 = and i64 %20, 3
  %27 = icmp ult i64 %23, 3
  br i1 %27, label %56, label %28

28:                                               ; preds = %22
  %29 = and i64 %20, 9223372036854775804
  br label %30

30:                                               ; preds = %30, %28
  %31 = phi i64 [ 0, %28 ], [ %53, %30 ]
  %32 = phi i32 [ 0, %28 ], [ %52, %30 ]
  %33 = phi i64 [ %29, %28 ], [ %54, %30 ]
  %34 = getelementptr inbounds [20000 x i32], [20000 x i32]* %2, i64 0, i64 %31
  %35 = load i32, i32* %34, align 16, !tbaa !5
  %36 = icmp eq i32 %35, %25
  %37 = or i64 %31, 1
  %38 = getelementptr inbounds [20000 x i32], [20000 x i32]* %2, i64 0, i64 %37
  %39 = load i32, i32* %38, align 4, !tbaa !5
  %40 = icmp eq i32 %39, %25
  %41 = or i64 %31, 2
  %42 = getelementptr inbounds [20000 x i32], [20000 x i32]* %2, i64 0, i64 %41
  %43 = load i32, i32* %42, align 8, !tbaa !5
  %44 = icmp eq i32 %43, %25
  %45 = or i64 %31, 3
  %46 = getelementptr inbounds [20000 x i32], [20000 x i32]* %2, i64 0, i64 %45
  %47 = load i32, i32* %46, align 4, !tbaa !5
  %48 = icmp eq i32 %47, %25
  %49 = select i1 %48, i1 true, i1 %44
  %50 = select i1 %49, i1 true, i1 %40
  %51 = select i1 %50, i1 true, i1 %36
  %52 = select i1 %51, i32 1, i32 %32
  %53 = add nuw nsw i64 %31, 4
  %54 = add i64 %33, -4
  %55 = icmp eq i64 %54, 0
  br i1 %55, label %56, label %30, !llvm.loop !11

56:                                               ; preds = %30, %22
  %57 = phi i32 [ undef, %22 ], [ %52, %30 ]
  %58 = phi i64 [ 0, %22 ], [ %53, %30 ]
  %59 = phi i32 [ 0, %22 ], [ %52, %30 ]
  %60 = icmp eq i64 %26, 0
  br i1 %60, label %72, label %61

61:                                               ; preds = %56, %61
  %62 = phi i64 [ %69, %61 ], [ %58, %56 ]
  %63 = phi i32 [ %68, %61 ], [ %59, %56 ]
  %64 = phi i64 [ %70, %61 ], [ %26, %56 ]
  %65 = getelementptr inbounds [20000 x i32], [20000 x i32]* %2, i64 0, i64 %62
  %66 = load i32, i32* %65, align 4, !tbaa !5
  %67 = icmp eq i32 %66, %25
  %68 = select i1 %67, i32 1, i32 %63
  %69 = add nuw nsw i64 %62, 1
  %70 = add i64 %64, -1
  %71 = icmp eq i64 %70, 0
  br i1 %71, label %72, label %61, !llvm.loop !12

72:                                               ; preds = %56, %61, %19
  %73 = phi i32 [ 0, %19 ], [ %57, %56 ], [ %68, %61 ]
  %74 = icmp eq i32 %73, 0
  %75 = select i1 %74, i1 %21, i1 false
  br i1 %75, label %76, label %79

76:                                               ; preds = %72
  %77 = load i32, i32* %9, align 16, !tbaa !5
  %78 = call i32 (i8*, ...) @printf(i8* nonnull dereferenceable(1) getelementptr inbounds ([3 x i8], [3 x i8]* @.str, i64 0, i64 0), i32 %77)
  br label %86

79:                                               ; preds = %72
  %80 = icmp ne i64 %20, 0
  %81 = select i1 %74, i1 %80, i1 false
  br i1 %81, label %82, label %86

82:                                               ; preds = %79
  %83 = getelementptr inbounds [20000 x i32], [20000 x i32]* %2, i64 0, i64 %20
  %84 = load i32, i32* %83, align 4, !tbaa !5
  %85 = call i32 (i8*, ...) @printf(i8* nonnull dereferenceable(1) getelementptr inbounds ([4 x i8], [4 x i8]* @.str.1, i64 0, i64 0), i32 %84)
  br label %86

86:                                               ; preds = %76, %79, %82
  %87 = add nuw nsw i64 %20, 1
  %88 = load i32, i32* %1, align 4, !tbaa !5
  %89 = sext i32 %88 to i64
  %90 = icmp slt i64 %87, %89
  br i1 %90, label %19, label %91, !llvm.loop !14

91:                                               ; preds = %86, %0, %8
  call void @llvm.lifetime.end.p0i8(i64 80000, i8* nonnull %4) #3
  call void @llvm.lifetime.end.p0i8(i64 4, i8* nonnull %3) #3
  ret i32 0
}

; Function Attrs: argmemonly mustprogress nofree nosync nounwind willreturn
declare void @llvm.lifetime.start.p0i8(i64 immarg, i8* nocapture) #1

; Function Attrs: nofree nounwind
declare noundef i32 @__isoc99_scanf(i8* nocapture noundef readonly, ...) local_unnamed_addr #2

; Function Attrs: nofree nounwind
declare noundef i32 @printf(i8* nocapture noundef readonly, ...) local_unnamed_addr #2

; Function Attrs: argmemonly mustprogress nofree nosync nounwind willreturn
declare void @llvm.lifetime.end.p0i8(i64 immarg, i8* nocapture) #1


!llvm.module.flags = !{!0, !1, !2, !3}
!llvm.ident = !{!4}

!0 = !{i32 1, !"wchar_size", i32 4}
!1 = !{i32 7, !"PIC Level", i32 2}
!2 = !{i32 7, !"PIE Level", i32 2}
!3 = !{i32 7, !"uwtable", i32 1}
!4 = !{!"clang version 13.0.0"}
!5 = !{!6, !6, i64 0}
!6 = !{!"int", !7, i64 0}
!7 = !{!"omnipotent char", !8, i64 0}
!8 = !{!"Simple C/C++ TBAA"}
!9 = distinct !{!9, !10}
!10 = !{!"llvm.loop.mustprogress"}
!11 = distinct !{!11, !10}
!12 = distinct !{!12, !13}
!13 = !{!"llvm.loop.unroll.disable"}
!14 = distinct !{!14, !10}
